target datalayout = "e-m:e-p270:32:32-p271:32:32-p272:64:64-i64:64-i128:128-f80:128-n8:16:32:64-S128"
target triple = "x86_64-pc-linux-gnu"

%struct.UPropsVectors = type { ptr, i32, i32, i32, i32, i8 }

; Function Attrs: mustprogress nounwind uwtable
define ptr @upvec_getArray_77(ptr noundef %0, ptr noundef %1, ptr noundef %2) #6 {
  %4 = alloca ptr, align 8
  %5 = alloca ptr, align 8
  %6 = alloca ptr, align 8
  %7 = alloca ptr, align 8
  store ptr %0, ptr %5, align 8, !tbaa !11
  store ptr %1, ptr %6, align 8, !tbaa !13
  store ptr %2, ptr %7, align 8, !tbaa !13
  %8 = load ptr, ptr %5, align 8, !tbaa !11
  %9 = getelementptr inbounds nuw %struct.UPropsVectors, ptr %8, i32 0, i32 5
  %10 = load i8, ptr %9, align 8, !tbaa !22
  %11 = icmp ne i8 %10, 0
  br i1 %11, label %13, label %12

12:                                               ; preds = %3
  store ptr null, ptr %4, align 8
  br label %34

13:                                               ; preds = %3
  %14 = load ptr, ptr %6, align 8, !tbaa !13
  %15 = icmp ne ptr %14, null
  br i1 %15, label %16, label %21

16:                                               ; preds = %13
  %17 = load ptr, ptr %5, align 8, !tbaa !11
  %18 = getelementptr inbounds nuw %struct.UPropsVectors, ptr %17, i32 0, i32 3
  %19 = load i32, ptr %18, align 8, !tbaa !19
  %20 = load ptr, ptr %6, align 8, !tbaa !13
  store i32 %19, ptr %20, align 4, !tbaa !3
  br label %21

21:                                               ; preds = %16, %13
  %22 = load ptr, ptr %7, align 8, !tbaa !13
  %23 = icmp ne ptr %22, null
  br i1 %23, label %24, label %30

24:                                               ; preds = %21
  %25 = load ptr, ptr %5, align 8, !tbaa !11
  %26 = getelementptr inbounds nuw %struct.UPropsVectors, ptr %25, i32 0, i32 1
  %27 = load i32, ptr %26, align 8, !tbaa !17
  %28 = sub nsw i32 %27, 2
  %29 = load ptr, ptr %7, align 8, !tbaa !13
  store i32 %28, ptr %29, align 4, !tbaa !3
  br label %30

30:                                               ; preds = %24, %21
  %31 = load ptr, ptr %5, align 8, !tbaa !11
  %32 = getelementptr inbounds nuw %struct.UPropsVectors, ptr %31, i32 0, i32 0
  %33 = load ptr, ptr %32, align 8, !tbaa !15
  store ptr %33, ptr %4, align 8
  br label %34

34:                                               ; preds = %30, %12
  %35 = load ptr, ptr %4, align 8
  ret ptr %35
}