; Function Attrs: mustprogress nofree norecurse nosync nounwind willreturn memory(argmem: readwrite) uwtable
define ptr @upvec_getArray_77(ptr noundef readonly captures(none) %0, ptr noundef writeonly %1, ptr noundef writeonly %2) local_unnamed_addr #9 {
  %4 = getelementptr inbounds nuw i8, ptr %0, i64 24
  %5 = load i8, ptr %4, align 8, !tbaa !18
  %.not = icmp eq i8 %5, 0
  br i1 %.not, label %17, label %6

6:                                                ; preds = %3
  %.not11 = icmp eq ptr %1, null
  br i1 %.not11, label %10, label %7

7:                                                ; preds = %6
  %8 = getelementptr inbounds nuw i8, ptr %0, i64 16
  %9 = load i32, ptr %8, align 8, !tbaa !14
  store i32 %9, ptr %1, align 4, !tbaa !15
  br label %10

10:                                               ; preds = %7, %6
  %.not12 = icmp eq ptr %2, null
  br i1 %.not12, label %15, label %11

11:                                               ; preds = %10
  %12 = getelementptr inbounds nuw i8, ptr %0, i64 8
  %13 = load i32, ptr %12, align 8, !tbaa !12
  %14 = add nsw i32 %13, -2
  store i32 %14, ptr %2, align 4, !tbaa !15
  br label %15

15:                                               ; preds = %11, %10
  %16 = load ptr, ptr %0, align 8, !tbaa !7
  br label %17

17:                                               ; preds = %3, %15
  %.0 = phi ptr [ %16, %15 ], [ null, %3 ]
  ret ptr %.0
}